cnumpy.core.multiarray
_reconstruct
p0
(cnumpy
ndarray
p1
(I0
tp2
S'b'
p3
tp4
Rp5
(I1
(L15L
tp6
cnumpy
dtype
p7
(S'O8'
p8
I0
I1
tp9
Rp10
(I3
S'|'
p11
NNNI-1
I-1
I63
tp12
bI00
(lp13
S'poi'
p14
aL0L
aL1L
aL2L
aL3L
aL4L
aL5L
aL6L
aL7L
aL8L
aL9L
aL10L
aL11L
aL12L
aL13L
atp15
b.